#include <math.h>
#include <stdio.h>
#include <stdlib.h>
#include <string.h>


int main(){
	int n,as[100000];
	scanf("%d",&n);
	as[0]=2;
	int k=1;
	for(int i=1;i<=n;i++)
	{
		int d=0;
		for(int j=2;j<i;j++)
		{
			if(i%j==0)
				d++;
		}
		if(d==0)
		{
			as[k]=i;
			k++;
		}
	}
	for(int h=1;h<k;h++)
	{
		if(as[h]-as[h-1]==2)
			printf("%d %d\n",as[h-1],as[h]);
	}
	if(n<=4)
		printf("empty");
	return 0;
}
